; Function Attrs: mustprogress nounwind uwtable
define internal void @_ZN12_GLOBAL__N_13BFS7enqueueERKN5clang4ento12WorkListUnitE(ptr noundef nonnull align 8 dereferenceable(96) %0, ptr noundef nonnull align 8 dereferenceable(28) %1) unnamed_addr #3 align 2 {
  %3 = getelementptr inbounds nuw i8, ptr %0, i64 64
  %4 = load ptr, ptr %3, align 8
  %5 = getelementptr inbounds nuw i8, ptr %0, i64 80
  %6 = load ptr, ptr %5, align 8
  %7 = getelementptr inbounds i8, ptr %6, i64 -32
  %.not.i = icmp eq ptr %4, %7
  br i1 %.not.i, label %11, label %8

8:                                                ; preds = %2
  tail call void @llvm.memcpy.p0.p0.i64(ptr noundef nonnull align 8 dereferenceable(32) %4, ptr noundef nonnull align 8 dereferenceable(32) %1, i64 32, i1 false)
  %9 = load ptr, ptr %3, align 8
  %10 = getelementptr inbounds nuw i8, ptr %9, i64 32
  store ptr %10, ptr %3, align 8
  br label %_ZNSt5dequeIN5clang4ento12WorkListUnitESaIS2_EE9push_backERKS2_.exit

11:                                               ; preds = %2
  %12 = getelementptr inbounds nuw i8, ptr %0, i64 16
  tail call void @_ZNSt5dequeIN5clang4ento12WorkListUnitESaIS2_EE16_M_push_back_auxIJRKS2_EEEvDpOT_(ptr noundef nonnull align 8 dereferenceable(80) %12, ptr noundef nonnull align 8 dereferenceable(28) %1)
  br label %_ZNSt5dequeIN5clang4ento12WorkListUnitESaIS2_EE9push_backERKS2_.exit

_ZNSt5dequeIN5clang4ento12WorkListUnitESaIS2_EE9push_backERKS2_.exit: ; preds = %8, %11
  ret void
}